ccollections
defaultdict
p0
(c__builtin__
list
p1
tp2
Rp3
S'00:24:14:31:e6:22'
p4
F-69.08
sS'00:24:14:31:eb:b4'
p5
F-82.84
sS'00:24:14:31:eb:b1'
p6
F-83.38775510204081
sS'00:24:14:31:eb:b0'
p7
F-83.24489795918367
sS'00:24:14:31:eb:b3'
p8
F-83.0
sS'00:24:14:31:eb:b2'
p9
F-83.6
sS'00:24:14:31:e6:2e'
p10
F-65.98
sS'00:24:14:31:f9:4e'
p11
F-65.04
sS'00:24:14:31:f2:ef'
p12
F-86.0
sS'00:24:14:31:f2:ee'
p13
F-86.2
sS'00:24:14:31:f9:4f'
p14
F-65.14
sS'00:24:14:31:f6:ef'
p15
F-73.24
sS'00:24:14:31:f2:e0'
p16
F-88.71428571428571
sS'00:24:14:31:e6:2f'
p17
F-65.88
sS'00:24:14:31:f6:e3'
p18
F-77.44
sS'00:24:14:31:f6:e2'
p19
F-76.68
sS'00:24:14:31:f6:e1'
p20
F-76.9
sS'00:24:14:31:f6:e0'
p21
F-76.92
sS'00:24:14:31:f8:a1'
p22
F-81.08163265306122
sS'00:24:14:31:f8:a0'
p23
F-81.18
sS'00:24:14:31:f8:a3'
p24
F-80.75510204081633
sS'00:24:14:31:f6:e4'
p25
F-77.12
sS'00:1a:e3:76:5f:40'
p26
F-87.0
sS'00:24:14:31:f8:a4'
p27
F-80.91666666666667
sS'00:24:14:31:eb:be'
p28
F-85.9795918367347
sS'00:24:14:31:eb:bf'
p29
F-85.79069767441861
sS'00:24:14:31:f8:ae'
p30
F-77.64
sS'00:24:14:31:f2:e3'
p31
F-89.0
sS'00:24:14:31:e6:23'
p32
F-69.32
sS'00:24:14:31:f8:af'
p33
F-77.78
sS'00:24:14:31:e6:24'
p34
F-69.02
sS'00:24:14:31:f6:ee'
p35
F-73.38
sS'00:24:14:31:f9:40'
p36
F-66.62
sS'00:24:14:31:e6:21'
p37
F-69.74
sS'00:24:14:31:f8:a2'
p38
F-80.98
sS'00:24:14:31:f2:e1'
p39
F-89.0
sS'00:24:14:31:e6:20'
p40
F-69.16
sS'00:24:14:31:f9:44'
p41
F-66.6
sS'00:24:14:31:f2:e4'
p42
F-89.71428571428571
sS'00:24:14:31:f9:41'
p43
F-66.6
sS'00:24:14:31:f2:e2'
p44
F-88.6
sS'00:24:14:31:f9:43'
p45
F-67.28
sS'00:24:14:31:f9:42'
p46
F-66.56
s.