ccollections
defaultdict
p0
(c__builtin__
list
p1
tp2
Rp3
S'00:24:14:31:f9:74'
p4
F-11.818181818181818
sS'00:24:14:31:fa:63'
p5
F-12.8125
sS'00:24:14:31:f9:70'
p6
F-12.916666666666666
sS'00:24:14:31:f9:71'
p7
F-14.23076923076923
sS'00:24:14:31:f9:72'
p8
F-14.090909090909092
sS'00:24:14:31:f9:73'
p9
F-13.676470588235293
sS'00:24:14:31:eb:b4'
p10
F-14.116788321167883
sS'00:24:14:31:eb:b1'
p11
F-19.301724137931036
sS'00:24:14:31:eb:b0'
p12
F-28.652542372881356
sS'00:24:14:31:eb:b3'
p13
F-14.48
sS'00:24:14:31:eb:b2'
p14
F-19.573643410852714
sS'00:24:14:31:f8:33'
p15
F-14.047619047619047
sS'00:24:14:31:f8:32'
p16
F-14.714285714285714
sS'00:24:14:31:f8:31'
p17
F-12.8125
sS'00:24:14:31:f8:30'
p18
F-12.179487179487179
sS'00:24:14:31:f7:a0'
p19
F-10.0
sS'00:24:14:31:f8:34'
p20
F-13.360655737704919
sS'00:24:14:31:fa:64'
p21
F-12.5
sS'00:24:14:31:f2:62'
p22
F-11.25
sS'00:24:14:31:f2:63'
p23
F-15.0
sS'00:24:14:31:f2:60'
p24
F-10.0
sS'00:24:14:31:f2:61'
p25
F-14.166666666666666
sS'00:24:14:31:f9:03'
p26
F-14.0625
sS'00:24:14:31:f2:64'
p27
F-15.0
sS'00:24:14:31:f9:12'
p28
F-14.0
sS'00:24:14:31:f9:13'
p29
F-15.0
sS'00:24:14:31:f9:10'
p30
F-13.75
sS'00:24:14:31:f9:11'
p31
F-15.0
sS'00:24:14:31:fa:61'
p32
F-10.0
sS'00:24:14:31:f9:14'
p33
F-11.666666666666666
sS'00:24:14:31:f6:e3'
p34
F-14.48473282442748
sS'00:24:14:31:f6:e2'
p35
F-14.316666666666666
sS'00:24:14:31:f6:e1'
p36
F-14.696850393700787
sS'00:24:14:31:f6:e0'
p37
F-14.024390243902438
sS'00:24:14:31:f8:a1'
p38
F-14.166666666666666
sS'00:24:14:31:f8:a3'
p39
F-13.421052631578947
sS'00:24:14:31:f6:e4'
p40
F-14.31407942238267
sS'00:24:14:31:f8:a4'
p41
F-10.714285714285714
sS'00:24:14:31:ed:30'
p42
F-14.957142857142857
sS'00:24:14:31:ed:31'
p43
F-13.837209302325581
sS'00:24:14:31:ed:32'
p44
F-14.098360655737705
sS'00:24:14:31:ed:33'
p45
F-13.384615384615385
sS'00:24:14:31:ed:34'
p46
F-13.846153846153847
sS'00:24:14:31:fa:60'
p47
F-15.0
sS'00:24:14:31:ed:74'
p48
F-15.185714285714285
sS'00:24:14:31:f7:a2'
p49
F-13.571428571428571
sS'00:24:14:31:e9:93'
p50
F-12.5
sS'00:24:14:31:e9:92'
p51
F-10.0
sS'00:24:14:31:ed:70'
p52
F-13.795180722891565
sS'00:24:14:31:ed:71'
p53
F-14.212765957446809
sS'00:24:14:31:ed:72'
p54
F-13.879310344827585
sS'00:24:14:31:ed:73'
p55
F-13.859649122807017
sS'00:24:14:31:e9:91'
p56
F-15.0
sS'00:24:14:31:e9:90'
p57
F-15.0
sS'00:24:14:31:e6:21'
p58
F-14.539877300613497
sS'00:24:14:31:e6:20'
p59
F-13.730061349693251
sS'00:24:14:31:e6:23'
p60
F-17.025
sS'00:24:14:31:e6:22'
p61
F-14.81764705882353
sS'00:24:14:31:e6:24'
p62
F-14.060402684563758
sS'00:24:14:31:f7:a1'
p63
F-15.0
sS'00:24:14:31:f9:01'
p64
F-11.333333333333334
sS'00:24:14:31:f9:00'
p65
F-13.977272727272727
sS'00:24:14:31:f8:a2'
p66
F-12.142857142857142
sS'00:24:14:31:f9:02'
p67
F-14.310344827586206
sS'00:24:14:31:f9:04'
p68
F-12.333333333333334
sS'00:23:04:89:d3:24'
p69
F-15.0
sS'00:24:14:31:f7:a4'
p70
F-11.666666666666666
sS'00:24:14:31:f9:44'
p71
F-14.13953488372093
sS'00:24:14:31:f7:a3'
p72
F-15.0
sS'00:24:14:31:f9:41'
p73
F-13.636363636363637
sS'00:24:14:31:f9:40'
p74
F-14.21951219512195
sS'00:24:14:31:f9:43'
p75
F-14.16988416988417
sS'00:24:14:31:f9:42'
p76
F-13.876146788990825
s.