ccollections
defaultdict
p0
(c__builtin__
list
p1
tp2
Rp3
S'00:24:14:31:fa:60'
p4
F-12.826086956521738
sS'00:24:14:31:eb:b4'
p5
F-21.25409836065574
sS'00:24:14:31:eb:b1'
p6
F-14.314516129032258
sS'00:24:14:31:eb:b0'
p7
F-13.461538461538462
sS'00:24:14:31:eb:b3'
p8
F-36.37735849056604
sS'00:24:14:31:eb:b2'
p9
F-13.543307086614174
sS'00:24:14:31:f7:a0'
p10
F-13.148148148148149
sS'00:24:14:31:e5:93'
p11
F-10.0
sS'00:24:14:31:f9:00'
p12
F-15.0
sS'00:24:14:31:f7:a1'
p13
F-13.636363636363637
sS'00:24:14:31:fa:61'
p14
F-13.4375
sS'00:24:14:31:f6:e3'
p15
F-14.565217391304348
sS'00:24:14:31:f6:e2'
p16
F-14.192913385826772
sS'00:24:14:31:f6:e1'
p17
F-14.470588235294118
sS'00:24:14:31:f6:e0'
p18
F-14.143426294820717
sS'00:24:14:31:f8:a1'
p19
F-15.0
sS'00:24:14:31:f9:04'
p20
F-15.0
sS'00:24:14:31:f6:e4'
p21
F-14.067460317460318
sS'00:24:14:31:f8:a4'
p22
F-15.0
sS'00:24:14:31:ed:30'
p23
F-12.5
sS'00:24:14:31:ed:70'
p24
F-15.0
sS'00:24:14:31:ed:71'
p25
F-13.333333333333334
sS'00:24:14:31:ed:72'
p26
F-11.25
sS'00:24:14:31:ed:73'
p27
F-15.0
sS'58:1f:aa:e6:72:a9'
p28
F-12.5
sS'00:24:14:31:e6:21'
p29
F-13.768115942028986
sS'00:24:14:31:e6:20'
p30
F-12.401639344262295
sS'00:24:14:31:e6:23'
p31
F-14.489051094890511
sS'00:24:14:31:e6:22'
p32
F-13.874172185430464
sS'00:24:14:31:e6:24'
p33
F-18.82857142857143
sS'00:24:14:31:fa:64'
p34
F-13.333333333333334
sS'00:24:14:31:fa:63'
p35
F-13.205128205128204
sS'00:24:14:31:f9:43'
p36
F-14.209486166007904
sS'00:24:14:31:fa:62'
p37
F-14.166666666666666
sS'00:24:14:31:f7:a4'
p38
F-12.142857142857142
sS'00:24:14:31:f9:44'
p39
F-14.294871794871796
sS'00:24:14:31:f7:a3'
p40
F-14.642857142857142
sS'00:24:14:31:f9:41'
p41
F-14.066390041493776
sS'00:24:14:31:f9:40'
p42
F-14.318181818181818
sS'00:24:14:31:f7:a2'
p43
F-14.0
sS'00:24:14:31:f9:42'
p44
F-13.951612903225806
s.