(dp0
I1
(lp1
S'A'
p2
aF-65.35
aS'B'
p3
aF-75.93
aS'C'
p4
aF-82.68
asI2
(lp5
g2
aF-63.5
ag3
aF-74.36
ag4
aF-81.47
asI3
(lp6
g2
aF-62.24
ag3
aF-71.68
ag4
aF-79.93
asI4
(lp7
g2
aF-59.13
ag3
aF-69.49
ag4
aF-77.98
asI5
(lp8
g2
aF-50.98
ag3
aF-70.21
ag4
aF-78.55
asI6
(lp9
g2
aF-48.82
ag3
aF-69.04
ag4
aF-76.75
asI7
(lp10
g2
aF-64.29
ag3
aF-59.47
ag4
aF-72.19
asI8
(lp11
g2
aF-66.21
ag3
aF-51.86
ag4
aF-71.78
asI9
(lp12
g2
aF-69.72
ag3
aF-51.27
ag4
aF-69.9
asI10
(lp13
g2
aF-79.375
ag3
aF-70.61
ag4
aF-53.21
asI11
(lp14
g2
aF-79.13
ag3
aF-70.98
ag4
aF-51.83
asI12
(lp15
g2
aF-78.72
ag3
aF-71.38
ag4
aF-52.91
asI13
(lp16
g2
aF-78.19
ag3
aF-72.21
ag4
aF-57.14
asI14
(lp17
g2
aF-79.68
ag3
aF-74.85
ag4
aF-59.54
asI15
(lp18
g2
aF-80.2
ag3
aF-74.48
ag4
aF-63.1
asI16
(lp19
g2
aF-62.83
ag3
aF-69.09
ag4
aF-74.16
asI17
(lp20
g2
aF-64.0
ag3
aF-63.5
ag4
aF-77.76
asI18
(lp21
g2
aF-59.93
ag3
aF-61.41
ag4
aF-74.09
asI19
(lp22
g2
aF-65.53
ag3
aF-59.38
ag4
aF-67.84
asI20
(lp23
g2
aF-68.62
ag3
aF-57.48
ag4
aF-67.41
asI21
(lp24
g2
aF-70.2
ag3
aF-57.87
ag4
aF-66.19
as.